Certificate:
    Data:
        Version: 3 (0x2)
        Serial Number: 1 (0x1)
        Signature Algorithm: sha256WithRSAEncryption
        Issuer: O=Test Org, CN=Test Org rauc CA Development
        Validity
            Not Before: Jan  1 00:00:00 1970 GMT
            Not After : Dec 31 23:59:59 9999 GMT
        Subject: O=Test Org, CN=Test Org rauc CA Development
        Subject Public Key Info:
            Public Key Algorithm: rsaEncryption
                Public-Key: (2048 bit)
                Modulus:
                    00:d0:fb:05:81:4f:89:ae:a9:b9:3f:24:9d:53:ed:
                    28:68:e2:7e:45:7b:e3:7c:aa:cd:f0:f3:ac:d3:69:
                    66:d6:f8:ab:e2:c6:70:8a:aa:fa:4c:58:3e:cc:f5:
                    4d:e3:c7:41:d6:ed:fb:80:4f:22:79:90:8e:dc:31:
                    e6:7b:9f:53:18:f2:83:22:16:3f:32:05:33:fb:23:
                    30:4d:c8:9b:0b:a6:b3:a4:cc:fb:a1:de:ea:95:8f:
                    a0:50:ea:91:4e:ae:32:a4:46:39:46:16:bd:48:43:
                    fe:d0:dd:74:49:cf:77:d4:06:b2:90:fc:0e:a6:31:
                    ba:64:14:89:73:96:b3:6e:93:1a:6d:fc:3c:8e:27:
                    12:51:b1:0f:a0:7f:64:62:61:22:22:7b:97:c2:99:
                    3d:a5:76:ff:b2:0f:56:fe:a1:4a:09:7e:89:79:8c:
                    7c:0c:00:e8:48:27:a1:7e:f9:7a:b4:8a:86:81:aa:
                    be:52:f3:74:df:43:81:c0:23:b1:86:2c:f4:82:d9:
                    91:3d:45:04:37:17:3b:ab:ba:ca:d0:98:f4:e7:fc:
                    75:7e:3c:1a:a8:09:bf:72:e8:eb:0f:4f:ff:cf:48:
                    c9:04:da:71:db:48:f1:d4:b1:e6:ef:8f:9c:98:15:
                    df:ca:de:18:89:05:af:6d:b8:20:6f:b3:8a:a4:a3:
                    12:b7
                Exponent: 65537 (0x10001)
        X509v3 extensions:
            X509v3 Subject Key Identifier: 
                B8:92:F3:F5:F3:0D:A7:01:03:9D:78:56:0A:A2:06:06:A0:B5:94:88
            X509v3 Authority Key Identifier: 
                keyid:B8:92:F3:F5:F3:0D:A7:01:03:9D:78:56:0A:A2:06:06:A0:B5:94:88
                DirName:/O=Test Org/CN=Test Org rauc CA Development
                serial:01
            X509v3 Basic Constraints: 
                CA:TRUE
    Signature Algorithm: sha256WithRSAEncryption
    Signature Value:
        07:36:20:50:6c:86:43:c6:8a:a5:94:d7:2b:65:40:55:89:cf:
        ab:79:33:88:d3:bc:8f:4f:49:c2:0c:1e:28:de:32:39:78:af:
        29:55:1f:3d:52:0a:c6:72:4e:ee:1a:d9:d8:17:64:56:10:90:
        a4:00:c3:60:18:92:9c:bd:d0:01:b6:16:b5:eb:24:ef:05:8e:
        14:9b:db:21:d6:88:8f:8d:55:fa:85:3a:e0:62:61:bc:22:5e:
        87:62:21:f4:f6:42:59:bc:c0:98:41:51:5a:01:e2:69:2b:d3:
        13:d8:b2:15:17:3f:c1:87:64:96:99:4c:72:be:9c:d8:b4:39:
        67:13:73:09:78:bd:d9:92:e7:48:91:9d:0b:ec:48:1b:c9:8e:
        60:c6:e9:b8:b9:da:11:73:84:d1:80:73:dd:2f:06:34:34:27:
        69:eb:43:8e:94:52:77:86:e5:38:d6:f9:6c:8c:7d:ef:24:14:
        c9:0c:86:d5:9c:c3:80:49:46:87:cc:c0:47:bb:70:bf:f8:8a:
        62:2f:cd:a1:4d:12:42:a7:e8:f8:62:ac:44:4a:02:fb:df:30:
        93:b6:97:2d:85:00:58:ae:58:2b:88:d4:0d:a5:7c:44:3e:d8:
        d7:40:5d:3f:ba:fd:5b:08:92:de:17:78:c9:b1:40:22:7d:01:
        0a:f9:4d:f1
-----BEGIN CERTIFICATE-----
MIIDhjCCAm6gAwIBAgIBATANBgkqhkiG9w0BAQsFADA6MREwDwYDVQQKDAhUZXN0
IE9yZzElMCMGA1UEAwwcVGVzdCBPcmcgcmF1YyBDQSBEZXZlbG9wbWVudDAgFw03
MDAxMDEwMDAwMDBaGA85OTk5MTIzMTIzNTk1OVowOjERMA8GA1UECgwIVGVzdCBP
cmcxJTAjBgNVBAMMHFRlc3QgT3JnIHJhdWMgQ0EgRGV2ZWxvcG1lbnQwggEiMA0G
CSqGSIb3DQEBAQUAA4IBDwAwggEKAoIBAQDQ+wWBT4muqbk/JJ1T7Sho4n5Fe+N8
qs3w86zTaWbW+KvixnCKqvpMWD7M9U3jx0HW7fuATyJ5kI7cMeZ7n1MY8oMiFj8y
BTP7IzBNyJsLprOkzPuh3uqVj6BQ6pFOrjKkRjlGFr1IQ/7Q3XRJz3fUBrKQ/A6m
MbpkFIlzlrNukxpt/DyOJxJRsQ+gf2RiYSIie5fCmT2ldv+yD1b+oUoJfol5jHwM
AOhIJ6F++Xq0ioaBqr5S83TfQ4HAI7GGLPSC2ZE9RQQ3FzurusrQmPTn/HV+PBqo
Cb9y6OsPT//PSMkE2nHbSPHUsebvj5yYFd/K3hiJBa9tuCBvs4qkoxK3AgMBAAGj
gZQwgZEwHQYDVR0OBBYEFLiS8/XzDacBA514VgqiBgagtZSIMGIGA1UdIwRbMFmA
FLiS8/XzDacBA514VgqiBgagtZSIoT6kPDA6MREwDwYDVQQKDAhUZXN0IE9yZzEl
MCMGA1UEAwwcVGVzdCBPcmcgcmF1YyBDQSBEZXZlbG9wbWVudIIBATAMBgNVHRME
BTADAQH/MA0GCSqGSIb3DQEBCwUAA4IBAQAHNiBQbIZDxoqllNcrZUBVic+reTOI
07yPT0nCDB4o3jI5eK8pVR89UgrGck7uGtnYF2RWEJCkAMNgGJKcvdABtha16yTv
BY4Um9sh1oiPjVX6hTrgYmG8Il6HYiH09kJZvMCYQVFaAeJpK9MT2LIVFz/Bh2SW
mUxyvpzYtDlnE3MJeL3ZkudIkZ0L7EgbyY5gxum4udoRc4TRgHPdLwY0NCdp60OO
lFJ3huU41vlsjH3vJBTJDIbVnMOASUaHzMBHu3C/+IpiL82hTRJCp+j4YqxESgL7
3zCTtpcthQBYrlgriNQNpXxEPtjXQF0/uv1bCJLeF3jJsUAifQEK+U3x
-----END CERTIFICATE-----
