Certificate:
    Data:
        Version: 3 (0x2)
        Serial Number: 2 (0x2)
        Signature Algorithm: sha256WithRSAEncryption
        Issuer: O=Test Org, CN=Test Org rauc CA Development
        Validity
            Not Before: Jan  1 00:00:00 1970 GMT
            Not After : Dec 31 23:59:59 9999 GMT
        Subject: O=Test Org, CN=Test Org Development-1
        Subject Public Key Info:
            Public Key Algorithm: rsaEncryption
                Public-Key: (2048 bit)
                Modulus:
                    00:d4:10:f2:77:ef:24:ea:c8:53:1f:a0:63:46:ce:
                    6c:c3:2c:59:1a:c9:65:4b:c9:3a:32:45:29:48:4f:
                    07:ba:4d:62:f3:97:d0:1e:53:51:cd:92:40:7e:80:
                    e4:16:80:60:07:e8:73:83:c0:8f:bd:dc:b5:71:ce:
                    c8:27:34:f5:06:90:e5:b5:68:13:bc:72:c1:9a:a9:
                    17:d6:06:a7:6d:ce:58:70:ea:3a:d0:bd:26:91:88:
                    b7:4c:a2:8a:89:d7:a6:25:4c:2a:c9:28:c3:6a:d3:
                    f5:77:c8:90:cd:5a:3c:e5:7c:fb:7e:e1:dc:db:2f:
                    47:cb:99:45:17:01:ea:2d:32:3f:6e:88:73:85:94:
                    19:50:e0:6b:c1:44:e2:9e:b5:66:3f:a3:8a:cd:9f:
                    87:a6:3e:2e:11:a0:03:71:7f:b4:48:78:0e:85:a5:
                    67:71:ca:35:37:f8:e4:f2:bb:9e:04:8c:98:f9:64:
                    c8:e0:33:f1:7f:31:1c:14:b7:2f:f6:2b:3f:6a:45:
                    36:ef:2f:df:f1:4b:ce:f8:67:10:43:78:07:3c:ee:
                    a3:8a:96:a0:46:48:e3:e4:44:ac:e8:70:64:2b:21:
                    89:01:20:9d:44:3d:92:39:ef:5d:74:cd:76:05:bd:
                    66:ef:36:bf:5a:2f:4f:8b:54:d4:33:b8:a3:ef:81:
                    8b:c5
                Exponent: 65537 (0x10001)
        X509v3 extensions:
            X509v3 Subject Key Identifier: 
                1B:B5:13:66:65:29:FC:1D:20:B3:48:90:B5:54:44:83:B2:4D:66:83
            X509v3 Authority Key Identifier: 
                keyid:B8:92:F3:F5:F3:0D:A7:01:03:9D:78:56:0A:A2:06:06:A0:B5:94:88
                DirName:/O=Test Org/CN=Test Org rauc CA Development
                serial:01
            X509v3 Basic Constraints: 
                CA:FALSE
    Signature Algorithm: sha256WithRSAEncryption
    Signature Value:
        6f:b7:11:05:9b:fa:2d:74:f1:b4:83:53:0b:91:74:22:12:1a:
        d9:2b:61:a4:b5:cd:8f:a1:01:c9:e5:e3:06:9d:d6:00:9e:39:
        5f:a0:d2:47:42:77:34:bd:99:49:51:08:37:14:d6:81:bd:5b:
        fc:d8:a3:53:b6:4b:0d:db:8a:49:3b:1d:91:e9:0d:60:d2:08:
        0c:d5:e6:26:f5:ad:67:f2:43:0b:c9:b2:11:06:ef:7c:ee:ba:
        32:69:b1:e5:50:32:72:61:9f:be:f9:45:ee:b8:a0:d0:25:41:
        9d:2d:a7:d3:2a:c1:d0:f3:81:95:23:55:76:cf:89:be:a4:11:
        d2:d8:6e:47:59:a9:d4:4b:e6:e2:1c:e2:e8:fb:24:3b:06:01:
        c3:4e:94:74:46:2e:f1:32:a0:f3:0e:67:3b:ed:2c:64:94:af:
        33:c5:aa:14:db:64:29:10:ca:14:f4:55:9d:f3:1a:5d:22:d3:
        97:61:d2:a3:96:b9:3d:fb:80:0f:a8:90:ca:e0:6b:57:80:5e:
        fd:65:95:ee:12:4b:ab:71:e9:72:03:06:04:38:c4:c7:ab:0c:
        94:7d:29:f9:81:9c:28:f0:6d:cd:71:b8:08:7c:25:2e:3a:79:
        da:6c:02:26:90:10:6d:41:61:b7:ec:05:91:13:28:ad:60:cf:
        d1:ab:0e:83
-----BEGIN CERTIFICATE-----
MIIDfTCCAmWgAwIBAgIBAjANBgkqhkiG9w0BAQsFADA6MREwDwYDVQQKDAhUZXN0
IE9yZzElMCMGA1UEAwwcVGVzdCBPcmcgcmF1YyBDQSBEZXZlbG9wbWVudDAgFw03
MDAxMDEwMDAwMDBaGA85OTk5MTIzMTIzNTk1OVowNDERMA8GA1UECgwIVGVzdCBP
cmcxHzAdBgNVBAMMFlRlc3QgT3JnIERldmVsb3BtZW50LTEwggEiMA0GCSqGSIb3
DQEBAQUAA4IBDwAwggEKAoIBAQDUEPJ37yTqyFMfoGNGzmzDLFkayWVLyToyRSlI
Twe6TWLzl9AeU1HNkkB+gOQWgGAH6HODwI+93LVxzsgnNPUGkOW1aBO8csGaqRfW
Bqdtzlhw6jrQvSaRiLdMooqJ16YlTCrJKMNq0/V3yJDNWjzlfPt+4dzbL0fLmUUX
AeotMj9uiHOFlBlQ4GvBROKetWY/o4rNn4emPi4RoANxf7RIeA6FpWdxyjU3+OTy
u54EjJj5ZMjgM/F/MRwUty/2Kz9qRTbvL9/xS874ZxBDeAc87qOKlqBGSOPkRKzo
cGQrIYkBIJ1EPZI57110zXYFvWbvNr9aL0+LVNQzuKPvgYvFAgMBAAGjgZEwgY4w
HQYDVR0OBBYEFBu1E2ZlKfwdILNIkLVURIOyTWaDMGIGA1UdIwRbMFmAFLiS8/Xz
DacBA514VgqiBgagtZSIoT6kPDA6MREwDwYDVQQKDAhUZXN0IE9yZzElMCMGA1UE
AwwcVGVzdCBPcmcgcmF1YyBDQSBEZXZlbG9wbWVudIIBATAJBgNVHRMEAjAAMA0G
CSqGSIb3DQEBCwUAA4IBAQBvtxEFm/otdPG0g1MLkXQiEhrZK2Gktc2PoQHJ5eMG
ndYAnjlfoNJHQnc0vZlJUQg3FNaBvVv82KNTtksN24pJOx2R6Q1g0ggM1eYm9a1n
8kMLybIRBu987royabHlUDJyYZ+++UXuuKDQJUGdLafTKsHQ84GVI1V2z4m+pBHS
2G5HWanUS+biHOLo+yQ7BgHDTpR0Ri7xMqDzDmc77SxklK8zxaoU22QpEMoU9FWd
8xpdItOXYdKjlrk9+4APqJDK4GtXgF79ZZXuEkurcelyAwYEOMTHqwyUfSn5gZwo
8G3NcbgIfCUuOnnabAImkBBtQWG37AWREyitYM/Rqw6D
-----END CERTIFICATE-----
